#include <math.h>
#include <stdio.h>
#include <stdlib.h>
#include <string.h>

void main()
{
	char str[128],*p;
	int n,i,j,k,m,x=0;
	gets(str);
	p=str;
	n=strlen(str);
	for(i=0;i<n;i++)
	{
		if(*(p+i)==' ') x++;
	}
	if(x==0)
	{
		for(i=0;i<n;i++)
			printf("%c",*(p+i));
	}
	else
	{
	   for(i=n-1;i>-1;i--)
	   {
		   if(*(p+i)==' ')
		   {
			m=i;
			for(j=i+1;*(p+j)!=' '&&*(p+j)!='\0';j++)
				printf("%c",*(p+j));
			printf("%c",' ');
		   }
	   }
	for(k=0;k<m;k++)
		printf("%c",*(p+k));
	}
}